; Function Attrs: mustprogress nofree norecurse nosync nounwind memory(readwrite, inaccessiblemem: none) uwtable
define hidden void @_ZN3sat15clause_use_list8iterator7consumeEv(ptr noundef nonnull align 8 captures(none) dereferenceable(20) %0) local_unnamed_addr #4 align 2 {
  %2 = getelementptr inbounds nuw i8, ptr %0, i64 12
  %3 = getelementptr inbounds nuw i8, ptr %0, i64 8
  %4 = load i32, ptr %3, align 8, !tbaa !18
  %.promoted = load i32, ptr %2, align 4, !tbaa !21
  %5 = icmp eq i32 %.promoted, %4
  br i1 %5, label %.loopexit, label %.lr.ph

.lr.ph:                                           ; preds = %1
  %6 = load ptr, ptr %0, align 8, !tbaa !22
  %7 = load ptr, ptr %6, align 8, !tbaa !3
  br label %8

8:                                                ; preds = %.lr.ph, %21
  %9 = phi i32 [ %.promoted, %.lr.ph ], [ %22, %21 ]
  %10 = zext i32 %9 to i64
  %11 = getelementptr inbounds nuw ptr, ptr %7, i64 %10
  %12 = load ptr, ptr %11, align 8, !tbaa !15
  %13 = getelementptr inbounds nuw i8, ptr %12, i64 16
  %14 = load i32, ptr %13, align 4
  %15 = and i32 %14, 2
  %.not = icmp eq i32 %15, 0
  br i1 %.not, label %16, label %21

16:                                               ; preds = %8
  %17 = getelementptr inbounds nuw i8, ptr %0, i64 16
  %18 = load i32, ptr %17, align 8, !tbaa !23
  %19 = zext i32 %18 to i64
  %20 = getelementptr inbounds nuw ptr, ptr %7, i64 %19
  store ptr %12, ptr %20, align 8, !tbaa !15
  br label %.loopexit

21:                                               ; preds = %8
  %22 = add i32 %9, 1
  store i32 %22, ptr %2, align 4, !tbaa !21
  %23 = icmp eq i32 %22, %4
  br i1 %23, label %.loopexit, label %8, !llvm.loop !24

.loopexit:                                        ; preds = %21, %1, %16
  ret void
}